(dp0
S'non_zero_edges'
p1
ccollections
OrderedDict
p2
((lp3
(lp4
S'Aut1360localeq.5000.r25.graphml'
p5
aI58285
aa(lp6
S'Aut1374localeq.5000.r25.graphml'
p7
aI26198
aa(lp8
S'Cocaine174localeq.5000.r25.graphml'
p9
aI14701
aa(lp10
S'Cocaine175localeq.5000.r25.graphml'
p11
aI29456
aa(lp12
S'Cocaine178localeq.5000.r25.graphml'
p13
aI14018
aa(lp14
S'Control181localeq.5000.r25.graphml'
p15
aI13145
aa(lp16
S'Control182localeq.5000.r25.graphml'
p17
aI25756
aa(lp18
S'Control189localeq.5000.r25.graphml'
p19
aI42232
aa(lp20
S'Control239localeq.5000.r25.graphml'
p21
aI23611
aa(lp22
S'Control258localeq.5000.r25.graphml'
p23
aI18239
aa(lp24
S'Fear187localeq.5000.r25.graphml'
p25
aI21675
aa(lp26
S'Fear197localeq.5000.r25.graphml'
p27
aI17364
aa(lp28
S'Fear199localeq.5000.r25.graphml'
p29
aI65596
aa(lp30
S'Fear200localeq.5000.r25.graphml'
p31
aI21823
aatp32
Rp33
s.