(dp0
S'non-zero_edges'
p1
(lp2
(S's2041'
p3
S's4992'
p4
tp5
a(S's2042'
p6
S's4382'
p7
tp8
a(S's2044'
p9
S's3107'
p10
tp11
a(S's2047'
p12
S's3149'
p13
tp14
a(S's2049'
p15
S's3724'
p16
tp17
a(S's2286'
p18
S's3929'
p19
tp20
a(S's2284'
p21
S's4258'
p22
tp23
a(S's2285'
p24
S's747'
p25
tp26
a(g24
S's1763'
p27
tp28
a(S's2732'
p29
S's2748'
p30
tp31
a(S's2289'
p32
S's1053'
p33
tp34
a(g32
S's1090'
p35
tp36
a(S's1218'
p37
S's4654'
p38
tp39
a(S's1838'
p40
S's1999'
p41
tp42
a(g40
S's381'
p43
tp44
a(S's1835'
p45
S's244'
p46
tp47
a(S's1831'
p48
S's3380'
p49
tp50
a(g48
S's2999'
p51
tp52
a(S's1832'
p53
S's3092'
p54
tp55
a(S's56'
p56
S's3963'
p57
tp58
a(S's53'
p59
S's2606'
p60
tp61
a(S's1748'
p62
S's1665'
p63
tp64
a(S's1210'
p65
S's4558'
p66
tp67
a(S's2138'
p68
S's206'
p69
tp70
a(S's2139'
p71
S's461'
p72
tp73
a(S's2134'
p74
S's2776'
p75
tp76
a(S's2135'
p77
S's1889'
p78
tp79
a(g77
S's350'
p80
tp81
a(S's2137'
p82
S's222'
p83
tp84
a(g82
S's1437'
p85
tp86
a(S's2131'
p87
S's2659'
p88
tp89
a(S's4319'
p90
S's1849'
p91
tp92
a(S's1216'
p93
S's4908'
p94
tp95
a(S's1409'
p96
S's1525'
p97
tp98
a(S's3845'
p99
S's1927'
p100
tp101
a(g99
S's1725'
p102
tp103
a(S's327'
p104
S's1346'
p105
tp106
a(S's3713'
p107
S's4202'
p108
tp109
a(S's3712'
p110
S's1990'
p111
tp112
a(S's1111'
p113
S's2404'
p114
tp115
a(S's1930'
p116
S's4274'
p117
tp118
a(S's799'
p119
S's1608'
p120
tp121
a(g119
S's3693'
p122
tp123
a(S's3399'
p124
S's3641'
p125
tp126
a(S's797'
p127
S's2172'
p128
tp129
a(g127
S's4123'
p130
tp131
a(S's793'
p132
S's4443'
p133
tp134
a(S's792'
p135
S's4963'
p136
tp137
a(S's3158'
p138
S's2462'
p139
tp140
a(S's3408'
p141
S's2781'
p142
tp143
a(S's3154'
p144
S's3673'
p145
tp146
a(S's3152'
p147
S's2880'
p148
tp149
a(S's3376'
p150
S's1489'
p151
tp152
a(S's3371'
p153
S's349'
p154
tp155
a(g153
S's3864'
p156
tp157
a(S's3373'
p158
S's193'
p159
tp160
a(S's3372'
p161
S's3742'
p162
tp163
a(S's998'
p164
S's2422'
p165
tp166
a(S's3609'
p167
S's1031'
p168
tp169
a(S's248'
p170
S's1221'
p171
tp172
a(S's242'
p173
S's4854'
p174
tp175
a(S's240'
p176
S's3822'
p177
tp178
a(S's247'
p179
S's305'
p180
tp181
a(S's4296'
p182
S's2075'
p183
tp184
a(S's4291'
p185
S's179'
p186
tp187
a(S's4290'
p188
S's3208'
p189
tp190
a(g188
S's1916'
p191
tp192
a(g188
S's3794'
p193
tp194
a(S's3970'
p195
S's4723'
p196
tp197
a(S's306'
p198
S's4769'
p199
tp200
a(g198
S's4320'
p201
tp202
a(S's304'
p203
S's1720'
p204
tp205
a(S's300'
p206
S's2831'
p207
tp208
a(S's1716'
p209
S's488'
p210
tp211
a(S's3577'
p212
S's3115'
p213
tp214
a(S's3575'
p215
S's448'
p216
tp217
a(S's3574'
p218
S's812'
p219
tp220
a(S's3573'
p221
S's2544'
p222
tp223
a(g221
S's4512'
p224
tp225
a(S's3227'
p226
S's292'
p227
tp228
a(S's3579'
p229
S's69'
p230
tp231
a(S's1539'
p232
S's1580'
p233
tp234
a(S's1538'
p235
S's1817'
p236
tp237
a(S's1531'
p238
S's2763'
p239
tp240
a(S's1027'
p241
S's4406'
p242
tp243
a(g241
S's4557'
p244
tp245
a(S's1351'
p246
S's3604'
p247
tp248
a(g246
S's2'
p249
tp250
a(S's3949'
p251
S's2624'
p252
tp253
a(S's4452'
p254
S's7'
p255
tp256
a(g254
S's4955'
p257
tp258
a(S's1153'
p259
S's1366'
p260
tp261
a(S's1445'
p262
S's3816'
p263
tp264
a(S's1446'
p265
S's1886'
p266
tp267
a(S's1440'
p268
S's2725'
p269
tp270
a(S's1442'
p271
S's2685'
p272
tp273
a(S's4679'
p274
S's4444'
p275
tp276
a(S's4670'
p277
S's2854'
p278
tp279
a(S's4672'
p280
S's4511'
p281
tp282
a(S's2580'
p283
S's143'
p284
tp285
a(g283
S's2109'
p286
tp287
a(S's2859'
p288
S's1179'
p289
tp290
a(g288
S's989'
p291
tp292
a(S's2857'
p293
S's69'
p294
tp295
a(S's2856'
p296
S's1075'
p297
tp298
a(S's4873'
p299
S's2376'
p300
tp301
a(S's1061'
p302
S's1030'
p303
tp304
a(S's332'
p305
S's3244'
p306
tp307
a(g305
S's4489'
p308
tp309
a(S's878'
p310
S's4255'
p311
tp312
a(S's879'
p313
S's3155'
p314
tp315
a(g313
S's2889'
p316
tp317
a(S's870'
p318
S's166'
p319
tp320
a(g318
S's3750'
p321
tp322
a(S's876'
p323
S's1997'
p324
tp325
a(S's877'
p326
S's1186'
p327
tp328
a(S's4704'
p329
S's4888'
p330
tp331
a(S's4703'
p332
S's2274'
p333
tp334
a(S's4702'
p335
S's3421'
p336
tp337
a(S's4874'
p338
S's972'
p339
tp340
a(S's2487'
p341
S's950'
p342
tp343
a(S's2260'
p344
S's4393'
p345
tp346
a(g344
S's2991'
p347
tp348
a(S's836'
p349
S's1614'
p350
tp351
a(g349
S's2198'
p352
tp353
a(S's2928'
p354
S's2914'
p355
tp356
a(S's2920'
p357
S's3420'
p358
tp359
a(S's2927'
p360
S's1895'
p361
tp362
a(S's2926'
p363
S's4245'
p364
tp365
a(S's2925'
p366
S's2495'
p367
tp368
a(S's904'
p369
S's328'
p370
tp371
a(g369
S's3968'
p372
tp373
a(S's906'
p374
S's2901'
p375
tp376
a(S's907'
p377
S's2706'
p378
tp379
a(S's2709'
p380
S's3935'
p381
tp382
a(g380
S's1643'
p383
tp384
a(S's1318'
p385
S's1384'
p386
tp387
a(S's3233'
p388
S's1730'
p389
tp390
a(S's337'
p391
S's4755'
p392
tp393
a(S's1848'
p394
S's1497'
p395
tp396
a(S's1842'
p397
S's4222'
p398
tp399
a(g397
S's4804'
p400
tp401
a(S's44'
p402
S's1052'
p403
tp404
a(S's46'
p405
S's193'
p406
tp407
a(S's41'
p408
S's3493'
p409
tp410
a(S's42'
p411
S's2975'
p412
tp413
a(S's2639'
p414
S's2291'
p415
tp416
a(S's2638'
p417
S's3088'
p418
tp419
a(S's3507'
p420
S's2472'
p421
tp422
a(S's3504'
p423
S's2774'
p424
tp425
a(S's2148'
p426
S's1686'
p427
tp428
a(S's2141'
p429
S's4999'
p430
tp431
a(S's2142'
p432
S's4106'
p433
tp434
a(S's2016'
p435
S's4276'
p436
tp437
a(S's3500'
p438
S's1972'
p439
tp440
a(S's14'
p441
S's2834'
p442
tp443
a(g441
S's3178'
p444
tp445
a(S's499'
p446
S's4399'
p447
tp448
a(g446
S's1587'
p449
tp450
a(S's496'
p451
S's448'
p452
tp453
a(S's494'
p454
S's916'
p455
tp456
a(S's495'
p457
S's550'
p458
tp459
a(S's490'
p460
S's3018'
p461
tp462
a(g460
S's883'
p463
tp464
a(S's491'
p465
S's2426'
p466
tp467
a(S's948'
p468
S's4251'
p469
tp470
a(g468
S's1513'
p471
tp472
a(S's949'
p473
S's358'
p474
tp475
a(S's3411'
p476
S's859'
p477
tp478
a(S's3388'
p479
S's508'
p480
tp481
a(g479
S's383'
p482
tp483
a(S's3380'
p484
S's2999'
p485
tp486
a(S's3418'
p487
S's710'
p488
tp489
a(S's3365'
p490
S's3443'
p491
tp492
a(g490
S's4919'
p493
tp494
a(S's3362'
p495
S's2399'
p496
tp497
a(S's3360'
p498
S's894'
p499
tp500
a(S's3361'
p501
S's2536'
p502
tp503
a(S's1003'
p504
S's2600'
p505
tp506
a(S's272'
p507
S's3392'
p508
tp509
a(S's471'
p510
S's1512'
p511
tp512
a(g510
S's3307'
p513
tp514
a(S's473'
p515
S's1551'
p516
tp517
a(S's4844'
p518
S's1892'
p519
tp520
a(S's4845'
p521
S's2431'
p522
tp523
a(S's478'
p524
S's2937'
p525
tp526
a(g524
S's3830'
p527
tp528
a(S's479'
p529
S's3868'
p530
tp531
a(S's4840'
p532
S's2162'
p533
tp534
a(S's3704'
p535
S's1213'
p536
tp537
a(S's3705'
p538
S's1452'
p539
tp540
a(g538
S's1880'
p541
tp542
a(S's3706'
p543
S's4469'
p544
tp545
a(S's3707'
p546
S's762'
p547
tp548
a(S's3700'
p549
S's1117'
p550
tp551
a(S's2614'
p552
S's2179'
p553
tp554
a(S's3709'
p555
S's4066'
p556
tp557
a(g555
S's4202'
p558
tp559
a(S's4280'
p560
S's1890'
p561
tp562
a(S's4281'
p563
S's531'
p564
tp565
a(S's4283'
p566
S's4503'
p567
tp568
a(S's4284'
p569
S's1699'
p570
tp571
a(g569
S's4422'
p572
tp573
a(S's4286'
p574
S's356'
p575
tp576
a(S's4289'
p577
S's978'
p578
tp579
a(S's3968'
p580
S's2405'
p581
tp582
a(S's311'
p583
S's598'
p584
tp585
a(S's310'
p586
S's2981'
p587
tp588
a(S's315'
p589
S's2803'
p590
tp591
a(S's317'
p592
S's4221'
p593
tp594
a(S's316'
p595
S's666'
p596
tp597
a(S's1700'
p598
S's2077'
p599
tp600
a(S's1704'
p601
S's28'
p602
tp603
a(S's1708'
p604
S's3466'
p605
tp606
a(S's3567'
p607
S's4566'
p608
tp609
a(S's1528'
p610
S's890'
p611
tp612
a(S's1522'
p613
S's3682'
p614
tp615
a(S's1521'
p616
S's2945'
p617
tp618
a(S's4060'
p619
S's1148'
p620
tp621
a(g619
S's2489'
p622
tp623
a(S's1209'
p624
S's1916'
p625
tp626
a(S's3223'
p627
S's4208'
p628
tp629
a(S's2837'
p630
S's1677'
p631
tp632
a(S's4443'
p633
S's3793'
p634
tp635
a(S's4440'
p636
S's3136'
p637
tp638
a(g636
S's3690'
p639
tp640
a(S's4441'
p641
S's3495'
p642
tp643
a(S's4447'
p644
S's3882'
p645
tp646
a(g644
S's611'
p647
tp648
a(S's1638'
p649
S's2527'
p650
tp651
a(S's1141'
p652
S's4095'
p653
tp654
a(S's1142'
p655
S's2235'
p656
tp657
a(S's1143'
p658
S's4632'
p659
tp660
a(S's1147'
p661
S's3658'
p662
tp663
a(S's1457'
p664
S's2510'
p665
tp666
a(S's1454'
p667
S's4662'
p668
tp669
a(S's1455'
p670
S's2340'
p671
tp672
a(S's1452'
p673
S's1880'
p674
tp675
a(S's1453'
p676
S's4524'
p677
tp678
a(S's1459'
p679
S's4262'
p680
tp681
a(S's4668'
p682
S's1475'
p683
tp684
a(S's4663'
p685
S's1743'
p686
tp687
a(g685
S's1761'
p688
tp689
a(S's4661'
p690
S's3334'
p691
tp692
a(S's4667'
p693
S's1740'
p694
tp695
a(S's4664'
p696
S's1243'
p697
tp698
a(S's2847'
p699
S's4462'
p700
tp701
a(g699
S's3511'
p702
tp703
a(g699
S's4839'
p704
tp705
a(S's1034'
p706
S's1412'
p707
tp708
a(S's1036'
p709
S's3589'
p710
tp711
a(S's1037'
p712
S's2376'
p713
tp714
a(g712
S's1414'
p715
tp716
a(S's1039'
p717
S's1646'
p718
tp719
a(S's863'
p720
S's896'
p721
tp722
a(S's862'
p723
S's1279'
p724
tp725
a(S's860'
p726
S's3467'
p727
tp728
a(S's4717'
p729
S's4067'
p730
tp731
a(S's4712'
p732
S's4177'
p733
tp734
a(S's1120'
p735
S's4387'
p736
tp737
a(S's1121'
p738
S's1398'
p739
tp740
a(S's1549'
p741
S's460'
p742
tp743
a(S's4719'
p744
S's487'
p745
tp746
a(S's2934'
p747
S's1375'
p748
tp749
a(g747
S's776'
p750
tp751
a(S's2937'
p752
S's3830'
p753
tp754
a(S's2930'
p755
S's1461'
p756
tp757
a(g755
S's1674'
p758
tp759
a(S's321'
p760
S's1809'
p761
tp762
a(S's2441'
p763
S's4610'
p764
tp765
a(S's2442'
p766
S's4605'
p767
tp768
a(S's2443'
p769
S's2608'
p770
tp771
a(S's2449'
p772
S's3856'
p773
tp774
a(S's916'
p775
S's1176'
p776
tp777
a(S's913'
p778
S's3091'
p779
tp780
a(S's912'
p781
S's4397'
p782
tp783
a(S's911'
p784
S's1199'
p785
tp786
a(S's2716'
p787
S's191'
p788
tp789
a(S's2711'
p790
S's623'
p791
tp792
a(S's919'
p793
S's1683'
p794
tp795
a(S's1859'
p796
S's374'
p797
tp798
a(g796
S's3278'
p799
tp800
a(S's3431'
p801
S's4621'
p802
tp803
a(S's323'
p804
S's2945'
p805
tp806
a(S's1853'
p807
S's2023'
p808
tp809
a(g807
S's2910'
p810
tp811
a(S's1854'
p812
S's102'
p813
tp814
a(S's79'
p815
S's3790'
p816
tp817
a(S's2622'
p818
S's3671'
p819
tp820
a(g818
S's818'
p821
tp822
a(S's2623'
p823
S's4479'
p824
tp825
a(g823
S's1464'
p826
tp827
a(S's71'
p828
S's4595'
p829
tp830
a(g828
S's3489'
p831
tp832
a(S's93'
p833
S's447'
p834
tp835
a(g833
S's1102'
p836
tp837
a(g833
S's3479'
p838
tp839
a(S's96'
p840
S's896'
p841
tp842
a(S's2152'
p843
S's25'
p844
tp845
a(S's2153'
p846
S's1694'
p847
tp848
a(S's2154'
p849
S's3220'
p850
tp851
a(S's2155'
p852
S's347'
p853
tp854
a(S's489'
p855
S's1668'
p856
tp857
a(S's480'
p858
S's996'
p859
tp860
a(S's482'
p861
S's2718'
p862
tp863
a(S's484'
p864
S's3484'
p865
tp866
a(S's647'
p867
S's4609'
p868
tp869
a(S's643'
p870
S's1884'
p871
tp872
a(S's1230'
p873
S's4754'
p874
tp875
a(S's418'
p876
S's2967'
p877
tp878
a(S's419'
p879
S's4253'
p880
tp881
a(g879
S's4768'
p882
tp883
a(S's1234'
p884
S's2544'
p885
tp886
a(S's4120'
p887
S's3904'
p888
tp889
a(S's1396'
p890
S's4967'
p891
tp892
a(S's4473'
p893
S's782'
p894
tp895
a(g893
S's2096'
p896
tp897
a(S's4123'
p898
S's2172'
p899
tp900
a(S's4472'
p901
S's1866'
p902
tp903
a(S's3179'
p904
S's582'
p905
tp906
a(S's4471'
p907
S's2035'
p908
tp909
a(g907
S's1305'
p910
tp911
a(S's3171'
p912
S's2992'
p913
tp914
a(S's3170'
p915
S's3033'
p916
tp917
a(S's3177'
p918
S's251'
p919
tp920
a(g918
S's2239'
p921
tp922
a(S's3176'
p923
S's1870'
p924
tp925
a(S's3603'
p926
S's3795'
p927
tp928
a(S's1460'
p929
S's2352'
p930
tp931
a(S's264'
p932
S's1013'
p933
tp934
a(S's1466'
p935
S's1244'
p936
tp937
a(S's465'
p938
S's406'
p939
tp940
a(g938
S's1404'
p941
tp942
a(g938
S's3295'
p943
tp944
a(g742
S's2075'
p945
tp946
a(S's4871'
p947
S's1507'
p948
tp949
a(S's4877'
p950
S's2304'
p951
tp952
a(S's3771'
p953
S's2068'
p954
tp955
a(g953
S's2897'
p956
tp957
a(g953
S's3755'
p958
tp959
a(S's3774'
p960
S's4643'
p961
tp962
a(S's3776'
p963
S's4429'
p964
tp965
a(S's4275'
p966
S's1627'
p967
tp968
a(g117
S's2482'
p969
tp970
a(g314
S's2889'
p971
tp972
a(S's1344'
p973
S's4824'
p974
tp975
a(S's3912'
p976
S's3001'
p977
tp978
a(S's3915'
p979
S's625'
p980
tp981
a(S's3917'
p982
S's1752'
p983
tp984
a(S's1739'
p985
S's4929'
p986
tp987
a(S's1736'
p988
S's4763'
p989
tp990
a(S's3599'
p991
S's4108'
p992
tp993
a(S's3595'
p994
S's2807'
p995
tp996
a(S's3594'
p997
S's568'
p998
tp999
a(S's3591'
p1000
S's2602'
p1001
tp1002
a(g1000
S's4436'
p1003
tp1004
a(S's3592'
p1005
S's1962'
p1006
tp1007
a(S's1287'
p1008
S's597'
p1009
tp1010
a(S's1284'
p1011
S's2654'
p1012
tp1013
a(S's4010'
p1014
S's183'
p1015
tp1016
a(S's4013'
p1017
S's26'
p1018
tp1019
a(S's4015'
p1020
S's439'
p1021
tp1022
a(g1020
S's3198'
p1023
tp1024
a(S's4014'
p1025
S's3946'
p1026
tp1027
a(g1025
S's951'
p1028
tp1029
a(S's1289'
p1030
S's2392'
p1031
tp1032
a(S's3827'
p1033
S's4419'
p1034
tp1035
a(S's3821'
p1036
S's3330'
p1037
tp1038
a(g1036
S's2903'
p1039
tp1040
a(S's4381'
p1041
S's503'
p1042
tp1043
a(g1041
S's839'
p1044
tp1045
a(S's3829'
p1046
S's2333'
p1047
tp1048
a(S's1609'
p1049
S's2692'
p1050
tp1051
a(S's1608'
p1052
S's3693'
p1053
tp1054
a(S's1603'
p1055
S's2601'
p1056
tp1057
a(S's1604'
p1058
S's343'
p1059
tp1060
a(S's1463'
p1061
S's1696'
p1062
tp1063
a(S's4656'
p1064
S's968'
p1065
tp1066
a(S's1469'
p1067
S's3636'
p1068
tp1069
a(S's4128'
p1070
S's612'
p1071
tp1072
a(g1070
S's284'
p1073
tp1074
a(S's4658'
p1075
S's1192'
p1076
tp1077
a(S's1190'
p1078
S's2066'
p1079
tp1080
a(S's1196'
p1081
S's4119'
p1082
tp1083
a(S's4492'
p1084
S's1695'
p1085
tp1086
a(S's4499'
p1087
S's3009'
p1088
tp1089
a(S's107'
p1090
S's1041'
p1091
tp1092
a(S's1517'
p1093
S's1750'
p1094
tp1095
a(S's1514'
p1096
S's185'
p1097
tp1098
a(g1096
S's2866'
p1099
tp1100
a(S's1045'
p1101
S's751'
p1102
tp1103
a(g1101
S's2696'
p1104
tp1105
a(S's1512'
p1106
S's3307'
p1107
tp1108
a(S's1046'
p1109
S's2098'
p1110
tp1111
a(S's1519'
p1112
S's4367'
p1113
tp1114
a(S's2895'
p1115
S's1971'
p1116
tp1117
a(g885
S's4512'
p1118
tp1119
a(S's2543'
p1120
S's1646'
p1121
tp1122
a(S's2542'
p1123
S's984'
p1124
tp1125
a(S's4722'
p1126
S's1907'
p1127
tp1128
a(g1126
S's845'
p1129
tp1130
a(S's4727'
p1131
S's2436'
p1132
tp1133
a(S's4726'
p1134
S's365'
p1135
tp1136
a(S's4725'
p1137
S's136'
p1138
tp1139
a(g1137
S's1320'
p1140
tp1141
a(S's1993'
p1142
S's4795'
p1143
tp1144
a(S's1992'
p1145
S's977'
p1146
tp1147
a(S's1991'
p1148
S's3552'
p1149
tp1150
a(S's1997'
p1151
S's4377'
p1152
tp1153
a(S's1995'
p1154
S's3692'
p1155
tp1156
a(S's2942'
p1157
S's2166'
p1158
tp1159
a(S's2947'
p1160
S's3901'
p1161
tp1162
a(S's2949'
p1163
S's2012'
p1164
tp1165
a(S's1043'
p1166
S's2464'
p1167
tp1168
a(S's2433'
p1169
S's3169'
p1170
tp1171
a(S's2435'
p1172
S's2198'
p1173
tp1174
a(S's2437'
p1175
S's177'
p1176
tp1177
a(S's2438'
p1178
S's3999'
p1179
tp1180
a(g1178
S's1974'
p1181
tp1182
a(S's1044'
p1183
S's610'
p1184
tp1185
a(S's922'
p1186
S's3189'
p1187
tp1188
a(S's923'
p1189
S's4042'
p1190
tp1191
a(S's920'
p1192
S's2008'
p1193
tp1194
a(S's926'
p1195
S's2339'
p1196
tp1197
a(g1195
S's147'
p1198
tp1199
a(S's2092'
p1200
S's3555'
p1201
tp1202
a(g1200
S's3523'
p1203
tp1204
a(S's2090'
p1205
S's1889'
p1206
tp1207
a(S's2097'
p1208
S's2724'
p1209
tp1210
a(S's2096'
p1211
S's782'
p1212
tp1213
a(S's1867'
p1214
S's387'
p1215
tp1216
a(g1214
S's4236'
p1217
tp1218
a(S's1866'
p1219
S's1952'
p1220
tp1221
a(S's1865'
p1222
S's1770'
p1223
tp1224
a(S's1863'
p1225
S's2325'
p1226
tp1227
a(S's1861'
p1228
S's3698'
p1229
tp1230
a(S's1860'
p1231
S's2963'
p1232
tp1233
a(g1231
S's1165'
p1234
tp1235
a(S's1869'
p1236
S's2465'
p1237
tp1238
a(S's1868'
p1239
S's4211'
p1240
tp1241
a(S's985'
p1242
S's435'
p1243
tp1244
a(S's855'
p1245
S's2919'
p1246
tp1247
a(S's852'
p1248
S's4951'
p1249
tp1250
a(S's850'
p1251
S's1167'
p1252
tp1253
a(S's67'
p1254
S's3061'
p1255
tp1256
a(S's2162'
p1257
S's2910'
p1258
tp1259
a(S's2169'
p1260
S's3052'
p1261
tp1262
a(g1260
S's3313'
p1263
tp1264
a(g1260
S's4142'
p1265
tp1266
a(S's2168'
p1267
S's705'
p1268
tp1269
a(S's80'
p1270
S's452'
p1271
tp1272
a(S's81'
p1273
S's2331'
p1274
tp1275
a(S's82'
p1276
S's3857'
p1277
tp1278
a(S's88'
p1279
S's2128'
p1280
tp1281
a(S's3300'
p1282
S's4135'
p1283
tp1284
a(S's3301'
p1285
S's3991'
p1286
tp1287
a(S's3302'
p1288
S's364'
p1289
tp1290
a(S's2547'
p1291
S's1087'
p1292
tp1293
a(g1291
S's1136'
p1294
tp1295
a(S's2898'
p1296
S's4264'
p1297
tp1298
a(S's3306'
p1299
S's1071'
p1300
tp1301
a(S's679'
p1302
S's4105'
p1303
tp1304
a(S's672'
p1305
S's511'
p1306
tp1307
a(S's677'
p1308
S's4152'
p1309
tp1310
a(S's1544'
p1311
S's1312'
p1312
tp1313
a(S's262'
p1314
S's4965'
p1315
tp1316
a(g1314
S's4488'
p1317
tp1318
a(S's4720'
p1319
S's3414'
p1320
tp1321
a(S's580'
p1322
S's2412'
p1323
tp1324
a(S's586'
p1325
S's4903'
p1326
tp1327
a(S's4729'
p1328
S's4414'
p1329
tp1330
a(S's3162'
p1331
S's3015'
p1332
tp1333
a(S's3168'
p1334
S's4223'
p1335
tp1336
a(S's1783'
p1337
S's1137'
p1338
tp1339
a(S's1780'
p1340
S's1503'
p1341
tp1342
a(g1340
S's596'
p1343
tp1344
a(S's4855'
p1345
S's610'
p1346
tp1347
a(S's1781'
p1348
S's1485'
p1349
tp1350
a(S's3618'
p1351
S's4918'
p1352
tp1353
a(S's3344'
p1354
S's601'
p1355
tp1356
a(S's3341'
p1357
S's1492'
p1358
tp1359
a(g1357
S's3818'
p1360
tp1361
a(S's4867'
p1362
S's534'
p1363
tp1364
a(S's298'
p1365
S's4338'
p1366
tp1367
a(S's295'
p1368
S's2420'
p1369
tp1370
a(g227
S's522'
p1371
tp1372
a(S's451'
p1373
S's2000'
p1374
tp1375
a(S's454'
p1376
S's3868'
p1377
tp1378
a(S's1553'
p1379
S's775'
p1380
tp1381
a(S's3762'
p1382
S's2682'
p1383
tp1384
a(S's3760'
p1385
S's1942'
p1386
tp1387
a(S's3767'
p1388
S's3262'
p1389
tp1390
a(g1388
S's3437'
p1391
tp1392
a(S's3768'
p1393
S's2525'
p1394
tp1395
a(S's308'
p1396
S's1086'
p1397
tp1398
a(S's3909'
p1399
S's167'
p1400
tp1401
a(g1399
S's3585'
p1402
tp1403
a(g1399
S's4733'
p1404
tp1405
a(S's3900'
p1406
S's840'
p1407
tp1408
a(S's3901'
p1409
S's1663'
p1410
tp1411
a(S's3906'
p1412
S's533'
p1413
tp1414
a(S's3907'
p1415
S's1'
p1416
tp1417
a(S's3904'
p1418
S's1068'
p1419
tp1420
a(S's1728'
p1421
S's3555'
p1422
tp1423
a(g1421
S's1177'
p1424
tp1425
a(g1421
S's3523'
p1426
tp1427
a(S's1729'
p1428
S's2031'
p1429
tp1430
a(S's1722'
p1431
S's362'
p1432
tp1433
a(S's3580'
p1434
S's173'
p1435
tp1436
a(S's3581'
p1437
S's1552'
p1438
tp1439
a(S's1291'
p1440
S's3102'
p1441
tp1442
a(S's1294'
p1443
S's3220'
p1444
tp1445
a(S's4005'
p1446
S's4752'
p1447
tp1448
a(g1446
S's1227'
p1449
tp1450
a(S's3832'
p1451
S's2601'
p1452
tp1453
a(S's4392'
p1454
S's1565'
p1455
tp1456
a(g345
S's3981'
p1457
tp1458
a(S's2532'
p1459
S's2775'
p1460
tp1461
a(S's3838'
p1462
S's4604'
p1463
tp1464
a(g1462
S's1616'
p1465
tp1466
a(S's1616'
p1467
S's3554'
p1468
tp1469
a(g1467
S's3655'
p1470
tp1471
a(S's1617'
p1472
S's2569'
p1473
tp1474
a(S's1612'
p1475
S's2505'
p1476
tp1477
a(S's1618'
p1478
S's2103'
p1479
tp1480
a(S's1619'
p1481
S's1182'
p1482
tp1483
a(S's4460'
p1484
S's3212'
p1485
tp1486
a(S's4461'
p1487
S's1508'
p1488
tp1489
a(S's4462'
p1490
S's3511'
p1491
tp1492
a(S's2821'
p1493
S's1559'
p1494
tp1495
a(S's4465'
p1496
S's1135'
p1497
tp1498
a(S's4132'
p1499
S's1384'
p1500
tp1501
a(S's2768'
p1502
S's942'
p1503
tp1504
a(S's1476'
p1505
S's2885'
p1506
tp1507
a(S's4484'
p1508
S's4793'
p1509
tp1510
a(S's921'
p1511
S's2391'
p1512
tp1513
a(S's1184'
p1514
S's2253'
p1515
tp1516
a(S's1187'
p1517
S's4631'
p1518
tp1519
a(g308
S's3244'
p1520
tp1521
a(g308
S's4968'
p1522
tp1523
a(S's839'
p1524
S's503'
p1525
tp1526
a(g1524
S's4236'
p1527
tp1528
a(S's116'
p1529
S's4776'
p1530
tp1531
a(S's110'
p1532
S's976'
p1533
tp1534
a(S's1052'
p1535
S's1893'
p1536
tp1537
a(S's1051'
p1538
S's4894'
p1539
tp1540
a(g1538
S's3011'
p1541
tp1542
a(S's1057'
p1543
S's1435'
p1544
tp1545
a(S's1058'
p1546
S's4055'
p1547
tp1548
a(g1546
S's3731'
p1549
tp1550
a(S's1985'
p1551
S's1132'
p1552
tp1553
a(S's1986'
p1554
S's2707'
p1555
tp1556
a(S's1981'
p1557
S's894'
p1558
tp1559
a(S's1983'
p1560
S's1680'
p1561
tp1562
a(S's2556'
p1563
S's2522'
p1564
tp1565
a(S's2881'
p1566
S's890'
p1567
tp1568
a(S's4738'
p1569
S's3112'
p1570
tp1571
a(S's2767'
p1572
S's1753'
p1573
tp1574
a(S's4737'
p1575
S's4627'
p1576
tp1577
a(S's4732'
p1578
S's1901'
p1579
tp1580
a(g1578
S's4964'
p1581
tp1582
a(S's2950'
p1583
S's467'
p1584
tp1585
a(S's2956'
p1586
S's3792'
p1587
tp1588
a(S's2662'
p1589
S's2674'
p1590
tp1591
a(S's2426'
p1592
S's2520'
p1593
tp1594
a(g1592
S's4931'
p1595
tp1596
a(S's2427'
p1597
S's4579'
p1598
tp1599
a(S's2428'
p1600
S's2507'
p1601
tp1602
a(S's2429'
p1603
S's4239'
p1604
tp1605
a(S's2778'
p1606
S's2504'
p1607
tp1608
a(S's1871'
p1609
S's4142'
p1610
tp1611
a(S's1877'
p1612
S's4898'
p1613
tp1614
a(S's1879'
p1615
S's3444'
p1616
tp1617
a(S's221'
p1618
S's2103'
p1619
tp1620
a(S's1375'
p1621
S's776'
p1622
tp1623
a(S's843'
p1624
S's3530'
p1625
tp1626
a(S's842'
p1627
S's4634'
p1628
tp1629
a(S's845'
p1630
S's1907'
p1631
tp1632
a(S's844'
p1633
S's1384'
p1634
tp1635
a(S's1020'
p1636
S's1166'
p1637
tp1638
a(S's2175'
p1639
S's2335'
p1640
tp1641
a(S's811'
p1642
S's4141'
p1643
tp1644
a(S's1537'
p1645
S's4786'
p1646
tp1647
a(S's2085'
p1648
S's215'
p1649
tp1650
a(S's2080'
p1651
S's2277'
p1652
tp1653
a(S's2081'
p1654
S's2406'
p1655
tp1656
a(S's2082'
p1657
S's3436'
p1658
tp1659
a(S's2083'
p1660
S's3685'
p1661
tp1662
a(S's664'
p1663
S's3205'
p1664
tp1665
a(S's660'
p1666
S's3980'
p1667
tp1668
a(S's662'
p1669
S's4881'
p1670
tp1671
a(S's668'
p1672
S's2247'
p1673
tp1674
a(S's1901'
p1675
S's4964'
p1676
tp1677
a(S's3087'
p1678
S's2979'
p1679
tp1680
a(S's3086'
p1681
S's178'
p1682
tp1683
a(g1681
S's2327'
p1684
tp1685
a(S's1116'
p1686
S's4970'
p1687
tp1688
a(S's7'
p1689
S's3485'
p1690
tp1691
a(g1689
S's30'
p1692
tp1693
a(g1689
S's4955'
p1694
tp1695
a(g1343
S's1503'
p1696
tp1697
a(g1343
S's4455'
p1698
tp1699
a(S's599'
p1700
S's359'
p1701
tp1702
a(S's2387'
p1703
S's4694'
p1704
tp1705
a(S's2386'
p1706
S's2332'
p1707
tp1708
a(S's402'
p1709
S's4820'
p1710
tp1711
a(S's3114'
p1712
S's3217'
p1713
tp1714
a(S's3117'
p1715
S's2265'
p1716
tp1717
a(g1715
S's3647'
p1718
tp1719
a(S's750'
p1720
S's385'
p1721
tp1722
a(S's3338'
p1723
S's391'
p1724
tp1725
a(S's3330'
p1726
S's2903'
p1727
tp1728
a(S's3333'
p1729
S's4389'
p1730
tp1731
a(S's4815'
p1732
S's721'
p1733
tp1734
a(S's289'
p1735
S's743'
p1736
tp1737
a(g1735
S's631'
p1738
tp1739
a(S's288'
p1740
S's3885'
p1741
tp1742
a(S's1254'
p1743
S's379'
p1744
tp1745
a(S's1255'
p1746
S's2345'
p1747
tp1748
a(S's444'
p1749
S's3780'
p1750
tp1751
a(S's447'
p1752
S's1102'
p1753
tp1754
a(g1752
S's3479'
p1755
tp1756
a(S's443'
p1757
S's1053'
p1758
tp1759
a(S's3759'
p1760
S's2585'
p1761
tp1762
a(S's3025'
p1763
S's3809'
p1764
tp1765
a(g1763
S's4373'
p1766
tp1767
a(S's3026'
p1768
S's532'
p1769
tp1770
a(g1768
S's10'
p1771
tp1772
a(S's3021'
p1773
S's433'
p1774
tp1775
a(g306
S's4968'
p1776
tp1777
a(g469
g471
tp1778
a(S's3938'
p1779
S's560'
p1780
tp1781
a(S's1689'
p1782
S's3412'
p1783
tp1784
a(S's1626'
p1785
S's2411'
p1786
tp1787
a(g1785
S's3962'
p1788
tp1789
a(S's4928'
p1790
S's728'
p1791
tp1792
a(S's4927'
p1793
S's766'
p1794
tp1795
a(S's4926'
p1796
S's4325'
p1797
tp1798
a(g1796
S's1349'
p1799
tp1800
a(g1796
S's2356'
p1801
tp1802
a(S's1622'
p1803
S's1597'
p1804
tp1805
a(S's1264'
p1806
S's4124'
p1807
tp1808
a(S's1261'
p1809
S's4139'
p1810
tp1811
a(S's3802'
p1812
S's3993'
p1813
tp1814
a(S's2458'
p1815
S's3231'
p1816
tp1817
a(g1815
S's2274'
p1818
tp1819
a(S's3804'
p1820
S's4389'
p1821
tp1822
a(S's1660'
p1823
S's2733'
p1824
tp1825
a(S's1325'
p1826
S's192'
p1827
tp1828
a(S's3627'
p1829
S's1795'
p1830
tp1831
a(S's4103'
p1832
S's3682'
p1833
tp1834
a(S's4101'
p1835
S's3265'
p1836
tp1837
a(S's4107'
p1838
S's2002'
p1839
tp1840
a(S's4104'
p1841
S's1953'
p1842
tp1843
a(S's1401'
p1844
S's4739'
p1845
tp1846
a(S's1404'
p1847
S's406'
p1848
tp1849
a(S's1406'
p1850
S's3636'
p1851
tp1852
a(g1850
S's4370'
p1853
tp1854
a(S's3036'
p1855
S's4318'
p1856
tp1857
a(g1855
S's775'
p1858
tp1859
a(S's3037'
p1860
S's689'
p1861
tp1862
a(S's129'
p1863
S's2815'
p1864
tp1865
a(S's122'
p1866
S's573'
p1867
tp1868
a(S's4035'
p1869
S's3983'
p1870
tp1871
a(S's4030'
p1872
S's4869'
p1873
tp1874
a(S's1063'
p1875
S's2520'
p1876
tp1877
a(S's4039'
p1878
S's2346'
p1879
tp1880
a(S's1313'
p1881
S's1797'
p1882
tp1883
a(S's2562'
p1884
S's1417'
p1885
tp1886
a(S's2566'
p1887
S's3443'
p1888
tp1889
a(g1887
S's2299'
p1890
tp1891
a(g1887
S's4502'
p1892
tp1893
a(S's1087'
p1894
S's1136'
p1895
tp1896
a(S's4742'
p1897
S's4047'
p1898
tp1899
a(S's3250'
p1900
S's579'
p1901
tp1902
a(g877
S's1095'
p1903
tp1904
a(S's2960'
p1905
S's3559'
p1906
tp1907
a(S's2414'
p1908
S's3234'
p1909
tp1910
a(S's2411'
p1911
S's3962'
p1912
tp1913
a(S's2986'
p1914
S's3077'
p1915
tp1916
a(S's945'
p1917
S's4938'
p1918
tp1919
a(S's1889'
p1920
S's4022'
p1921
tp1922
a(S's1887'
p1923
S's359'
p1924
tp1925
a(S's1886'
p1926
S's3992'
p1927
tp1928
a(S's2188'
p1929
S's3215'
p1930
tp1931
a(S's2184'
p1932
S's4367'
p1933
tp1934
a(S's2341'
p1935
S's600'
p1936
tp1937
a(S's2344'
p1938
S's2335'
p1939
tp1940
a(g1938
S's4603'
p1941
tp1942
a(S's2743'
p1943
S's4995'
p1944
tp1945
a(S's2749'
p1946
S's1654'
p1947
tp1948
a(S's613'
p1949
S's4364'
p1950
tp1951
a(S's617'
p1952
S's1225'
p1953
tp1954
a(S's823'
p1955
S's713'
p1956
tp1957
a(S's543'
p1958
S's4650'
p1959
tp1960
a(S's822'
p1961
S's435'
p1962
tp1963
a(S's3237'
p1964
S's3840'
p1965
tp1966
a(S's726'
p1967
S's3455'
p1968
tp1969
a(S's3100'
p1970
S's3014'
p1971
tp1972
a(g1970
S's4691'
p1973
tp1974
a(S's2650'
p1975
S's150'
p1976
tp1977
a(S's3329'
p1978
S's3118'
p1979
tp1980
a(S's3322'
p1981
S's4027'
p1982
tp1983
a(S's4807'
p1984
S's1633'
p1985
tp1986
a(S's4804'
p1987
S's4222'
p1988
tp1989
a(S's4805'
p1990
S's1913'
p1991
tp1992
a(S's439'
p1993
S's3198'
p1994
tp1995
a(S's430'
p1996
S's133'
p1997
tp1998
a(S's431'
p1999
S's3092'
p2000
tp2001
a(S's433'
p2002
S's3019'
p2003
tp2004
a(g2002
S's2278'
p2005
tp2006
a(S's436'
p2007
S's396'
p2008
tp2009
a(S's3741'
p2010
S's330'
p2011
tp2012
a(S's3035'
p2013
S's1173'
p2014
tp2015
a(S's3746'
p2016
S's2651'
p2017
tp2018
a(S's3031'
p2019
S's2617'
p2020
tp2021
a(S's3254'
p2022
S's4404'
p2023
tp2024
a(S's3925'
p2025
S's579'
p2026
tp2027
a(S's3928'
p2028
S's4625'
p2029
tp2030
a(S's3258'
p2031
S's2675'
p2032
tp2033
a(S's3259'
p2034
S's4171'
p2035
tp2036
a(S's545'
p2037
S's4591'
p2038
tp2039
a(S's4931'
p2040
S's2780'
p2041
tp2042
a(S's3635'
p2043
S's2777'
p2044
tp2045
a(S's3631'
p2046
S's177'
p2047
tp2048
a(S's3632'
p2049
S's1932'
p2050
tp2051
a(S's3638'
p2052
S's2686'
p2053
tp2054
a(g2052
S's981'
p2055
tp2056
a(S's3639'
p2057
S's1353'
p2058
tp2059
a(S's1276'
p2060
S's3876'
p2061
tp2062
a(S's1274'
p2063
S's2978'
p2064
tp2065
a(g2063
S's4241'
p2066
tp2067
a(S's886'
p2068
S's3533'
p2069
tp2070
a(S's4079'
p2071
S's705'
p2072
tp2073
a(S's3812'
p2074
S's3129'
p2075
tp2076
a(S's1676'
p2077
S's4112'
p2078
tp2079
a(S's4244'
p2080
S's4301'
p2081
tp2082
a(S's2099'
p2083
S's3517'
p2084
tp2085
a(S's1418'
p2086
S's3851'
p2087
tp2088
a(S's1419'
p2089
S's1364'
p2090
tp2091
a(S's1415'
p2092
S's1805'
p2093
tp2094
a(S's134'
p2095
S's3691'
p2096
tp2097
a(S's136'
p2098
S's1320'
p2099
tp2100
a(S's130'
p2101
S's1256'
p2102
tp2103
a(S's138'
p2104
S's1079'
p2105
tp2106
a(S's4024'
p2107
S's3460'
p2108
tp2109
a(S's4026'
p2110
S's1172'
p2111
tp2112
a(S's1073'
p2113
S's3815'
p2114
tp2115
a(S's1074'
p2116
S's3686'
p2117
tp2118
a(S's1077'
p2119
S's2998'
p2120
tp2121
a(S's1305'
p2122
S's3966'
p2123
tp2124
a(S's3195'
p2125
S's1093'
p2126
tp2127
a(S's2862'
p2128
S's2256'
p2129
tp2130
a(S's1309'
p2131
S's630'
p2132
tp2133
a(S's1097'
p2134
S's2681'
p2135
tp2136
a(S's1094'
p2137
S's4384'
p2138
tp2139
a(S's4752'
p2140
S's1227'
p2141
tp2142
a(S's2971'
p2143
g2135
tp2144
a(S's2973'
p2145
S's2118'
p2146
tp2147
a(S's2975'
p2148
S's634'
p2149
tp2150
a(S's2976'
p2151
S's3649'
p2152
tp2153
a(S's2977'
p2154
S's4628'
p2155
tp2156
a(S's2408'
p2157
S's2586'
p2158
tp2159
a(S's2403'
p2160
S's1651'
p2161
tp2162
a(g114
S's1635'
p2163
tp2164
a(S's1898'
p2165
S's552'
p2166
tp2167
a(S's1896'
p2168
S's4519'
p2169
tp2170
a(S's1893'
p2171
S's1333'
p2172
tp2173
a(S's2704'
p2174
S's3661'
p2175
tp2176
a(S's2576'
p2177
S's1931'
p2178
tp2179
a(S's2573'
p2180
S's568'
p2181
tp2182
a(S's4329'
p2183
S's3049'
p2184
tp2185
a(S's2199'
p2186
S's2702'
p2187
tp2188
a(S's2194'
p2189
S's2519'
p2190
tp2191
a(S's2190'
p2192
S's1756'
p2193
tp2194
a(S's1772'
p2195
S's2628'
p2196
tp2197
a(S's2354'
p2198
S's3065'
p2199
tp2200
a(S's2350'
p2201
S's4490'
p2202
tp2203
a(S's2091'
p2204
S's4115'
p2205
tp2206
a(S's835'
p2207
S's3850'
p2208
tp2209
a(S's2758'
p2210
S's2303'
p2211
tp2212
a(S's602'
p2213
S's3841'
p2214
tp2215
a(S's601'
p2216
S's2671'
p2217
tp2218
a(S's600'
p2219
S's3054'
p2220
tp2221
a(S's607'
p2222
S's2607'
p2223
tp2224
a(g2222
S's3518'
p2225
tp2226
a(S's4051'
p2227
S's4783'
p2228
tp2229
a(S's2989'
p2230
S's3666'
p2231
tp2232
a(S's3220'
p2233
S's976'
p2234
tp2235
a(S's1000'
p2236
S's4821'
p2237
tp2238
a(g2236
S's714'
p2239
tp2240
a(S's737'
p2241
S's4696'
p2242
tp2243
a(g2241
S's4436'
p2244
tp2245
a(S's4113'
p2246
S's2311'
p2247
tp2248
a(S's3138'
p2249
S's637'
p2250
tp2251
a(S's3136'
p2252
S's529'
p2253
tp2254
a(S's3133'
p2255
S's2004'
p2256
tp2257
a(S's3487'
p2258
S's1333'
p2259
tp2260
a(S's3485'
p2261
S's30'
p2262
tp2263
a(S's3483'
p2264
S's3474'
p2265
tp2266
a(S's3489'
p2267
S's4003'
p2268
tp2269
a(g2267
S's4595'
p2270
tp2271
a(S's4839'
p2272
S's3511'
p2273
tp2274
a(S's4834'
p2275
S's4891'
p2276
tp2277
a(S's833'
p2278
S's969'
p2279
tp2280
a(S's422'
p2281
S's3784'
p2282
tp2283
a(S's3619'
p2284
S's213'
p2285
tp2286
a(S's427'
p2287
S's807'
p2288
tp2289
a(S's426'
p2290
S's4300'
p2291
tp2292
a(S's424'
p2293
S's2258'
p2294
tp2295
a(S's3003'
p2296
S's2275'
p2297
tp2298
a(S's2633'
p2299
S's4639'
p2300
tp2301
a(S's3614'
p2302
S's201'
p2303
tp2304
a(S's3267'
p2305
S's2826'
p2306
tp2307
a(S's3613'
p2308
S's1368'
p2309
tp2310
a(S's3797'
p2311
S's4231'
p2312
tp2313
a(S's3794'
p2314
S's3208'
p2315
tp2316
a(S's557'
p2317
S's217'
p2318
tp2319
a(S's4903'
p2320
S's752'
p2321
tp2322
a(S's4901'
p2323
S's3292'
p2324
tp2325
a(g2323
S's1922'
p2326
tp2327
a(S's4906'
p2328
S's2512'
p2329
tp2330
a(S's559'
p2331
S's3434'
p2332
tp2333
a(S's558'
p2334
S's1754'
p2335
tp2336
a(S's3313'
p2337
S's4142'
p2338
tp2339
a(S's1240'
p2340
S's1803'
p2341
tp2342
a(S's4341'
p2343
S's3448'
p2344
tp2345
a(S's1244'
p2346
S's4960'
p2347
tp2348
a(S's3869'
p2349
S's4553'
p2350
tp2351
a(S's3862'
p2352
S's2589'
p2353
tp2354
a(S's3867'
p2355
S's1222'
p2356
tp2357
a(S's3866'
p2358
S's1919'
p2359
tp2360
a(S's1645'
p2361
S's4973'
p2362
tp2363
a(g2361
S's1745'
p2364
tp2365
a(S's1643'
p2366
S's3935'
p2367
tp2368
a(S's1640'
p2369
S's715'
p2370
tp2371
a(S's4232'
p2372
S's2588'
p2373
tp2374
a(g1527
S's503'
p2375
tp2376
a(S's4648'
p2377
S's68'
p2378
tp2379
a(S's3292'
p2380
S's1922'
p2381
tp2382
a(g2380
S's177'
p2383
tp2384
a(S's4697'
p2385
S's1566'
p2386
tp2387
a(g1704
S's1568'
p2388
tp2389
a(g284
S's2109'
p2390
tp2391
a(S's148'
p2392
S's4098'
p2393
tp2394
a(g2392
S's1168'
p2395
tp2396
a(S's3297'
p2397
S's3873'
p2398
tp2399
a(S's384'
p2400
S's3553'
p2401
tp2402
a(S's3295'
p2403
S's406'
p2404
tp2405
a(S's388'
p2406
S's2222'
p2407
tp2408
a(S's4589'
p2409
S's3731'
p2410
tp2411
a(S's1339'
p2412
S's3455'
p2413
tp2414
a(S's4560'
p2415
S's3205'
p2416
tp2417
a(S's4562'
p2418
S's4300'
p2419
tp2420
a(S's1161'
p2421
S's190'
p2422
tp2423
a(S's1420'
p2424
S's3091'
p2425
tp2426
a(S's1429'
p2427
S's986'
p2428
tp2429
a(S's2214'
p2430
S's2456'
p2431
tp2432
a(S's2216'
p2433
S's2388'
p2434
tp2435
a(S's2210'
p2436
S's1631'
p2437
tp2438
a(S's2690'
p2439
S's3693'
p2440
tp2441
a(g2439
S's2051'
p2442
tp2443
a(S's2695'
p2444
S's3073'
p2445
tp2446
a(S's2694'
p2447
S's2306'
p2448
tp2449
a(S's2697'
p2450
S's4362'
p2451
tp2452
a(S's4758'
p2453
S's829'
p2454
tp2455
a(S's898'
p2456
S's4940'
p2457
tp2458
a(S's2509'
p2459
S's3458'
p2460
tp2461
a(S's897'
p2462
S's522'
p2463
tp2464
a(S's895'
p2465
S's4201'
p2466
tp2467
a(S's3530'
p2468
S's189'
p2469
tp2470
a(S's2322'
p2471
S's4599'
p2472
tp2473
a(g2471
S's2479'
p2474
tp2475
a(S's2325'
p2476
S's1462'
p2477
tp2478
a(g1684
S's178'
p2479
tp2480
a(S's960'
p2481
S's2013'
p2482
tp2483
a(S's639'
p2484
S's4228'
p2485
tp2486
a(S's632'
p2487
S's3470'
p2488
tp2489
a(S's631'
p2490
S's743'
p2491
tp2492
a(S's2037'
p2493
S's1681'
p2494
tp2495
a(S's2030'
p2496
S's2019'
p2497
tp2498
a(S's2771'
p2499
S's1481'
p2500
tp2501
a(S's4843'
p2502
S's624'
p2503
tp2504
a(S's3903'
p2505
S's1925'
p2506
tp2507
a(S's701'
p2508
S's2772'
p2509
tp2510
a(S's704'
p2511
S's2661'
p2512
tp2513
a(S's3127'
p2514
S's1461'
p2515
tp2516
a(S's3402'
p2517
S's1963'
p2518
tp2519
a(S's1943'
p2520
S's1787'
p2521
tp2522
a(S's1398'
p2523
g874
tp2524
a(S's3498'
p2525
S's1114'
p2526
tp2527
a(S's413'
p2528
S's4981'
p2529
tp2530
a(S's3010'
p2531
S's3668'
p2532
tp2533
a(S's3011'
p2534
S's760'
p2535
tp2536
a(S's3012'
p2537
S's2208'
p2538
tp2539
a(S's3013'
p2540
S's4017'
p2541
tp2542
a(S's4882'
p2543
S's1212'
p2544
tp2545
a(g2543
S's2112'
p2546
tp2547
a(S's3844'
p2548
S's369'
p2549
tp2550
a(S's3278'
p2551
S's374'
p2552
tp2553
a(S's3275'
p2554
S's4797'
p2555
tp2556
a(S's4914'
p2557
S's2679'
p2558
tp2559
a(S's4916'
p2560
S's2796'
p2561
tp2562
a(S's4917'
p2563
S's3892'
p2564
tp2565
a(S's4912'
p2566
S's4363'
p2567
tp2568
a(S's4913'
p2569
S's4962'
p2570
tp2571
a(S's4919'
p2572
S's3443'
p2573
tp2574
a(S's3782'
p2575
S's2463'
p2576
tp2577
a(S's3650'
p2578
S's513'
p2579
tp2580
a(S's4356'
p2581
S's4046'
p2582
tp2583
a(S's4351'
p2584
S's4385'
p2585
tp2586
a(S's3999'
p2587
S's1974'
p2588
tp2589
a(S's3878'
p2590
S's1165'
p2591
tp2592
a(S's3879'
p2593
S's4003'
p2594
tp2595
a(S's4857'
p2596
S's3461'
p2597
tp2598
a(S's3871'
p2599
S's4909'
p2600
tp2601
a(S's3876'
p2602
S's3214'
p2603
tp2604
a(S's1653'
p2605
S's4553'
p2606
tp2607
a(S's1655'
p2608
S's4608'
p2609
tp2610
a(S's1656'
p2611
S's1494'
p2612
tp2613
a(S's4220'
p2614
S's2688'
p2615
tp2616
a(S's4224'
p2617
S's3899'
p2618
tp2619
a(S's4172'
p2620
S's1746'
p2621
tp2622
a(S's399'
p2623
S's360'
p2624
tp2625
a(S's2265'
p2626
S's3647'
p2627
tp2628
a(g2626
S's2685'
p2629
tp2630
a(S's4598'
p2631
S's1241'
p2632
tp2633
a(S's1253'
p2634
S's2668'
p2635
tp2636
a(g2270
S's4003'
p2637
tp2638
a(S's4771'
p2639
S's4616'
p2640
tp2641
a(S's4775'
p2642
S's4317'
p2643
tp2644
a(S's1323'
p2645
S's680'
p2646
tp2647
a(S's4571'
p2648
S's741'
p2649
tp2650
a(S's1115'
p2651
S's3046'
p2652
tp2653
a(S's4507'
p2654
S's1356'
p2655
tp2656
a(S's4686'
p2657
S's884'
p2658
tp2659
a(S's1438'
p2660
S's3139'
p2661
tp2662
a(S's2205'
p2663
S's2479'
p2664
tp2665
a(S's2686'
p2666
S's3553'
p2667
tp2668
a(S's4455'
p2669
S's1503'
p2670
tp2671
a(S's889'
p2672
g1590
tp2673
a(S's2513'
p2674
S's2292'
p2675
tp2676
a(S's4681'
p2677
S's2001'
p2678
tp2679
a(S's2335'
p2680
S's4603'
p2681
tp2682
a(S's1925'
p2683
S's769'
p2684
tp2685
a(S's2273'
p2686
S's1947'
p2687
tp2688
a(S's1929'
p2689
S's2679'
p2690
tp2691
a(S's979'
p2692
S's2602'
p2693
tp2694
a(S's978'
p2695
S's3647'
p2696
tp2697
a(S's2022'
p2698
S's4510'
p2699
tp2700
a(S's2023'
p2701
S's1566'
p2702
tp2703
a(g2701
S's2910'
p2704
tp2705
a(S's2021'
p2706
S's532'
p2707
tp2708
a(S's1590'
p2709
S's1179'
p2710
tp2711
a(S's2028'
p2712
S's3470'
p2713
tp2714
a(S's4459'
p2715
S's2654'
p2716
tp2717
a(S's530'
p2718
S's2609'
p2719
tp2720
a(g2718
S's2787'
p2721
tp2722
a(S's1759'
p2723
S's3698'
p2724
tp2725
a(g2723
S's2814'
p2726
tp2727
a(S's712'
p2728
S's1241'
p2729
tp2730
a(S's1942'
p2731
S's2646'
p2732
tp2733
a(S's1957'
p2734
S's1224'
p2735
tp2736
a(S's1202'
p2737
S's1137'
p2738
tp2739
a(S's4640'
p2740
S's2602'
p2741
tp2742
a(S's3465'
p2743
S's4975'
p2744
tp2745
a(S's4643'
p2746
S's1376'
p2747
tp2748
a(S's3060'
p2749
S's3062'
p2750
tp2751
a(S's4130'
p2752
S's2474'
p2753
tp2754
a(S's3066'
p2755
S's4607'
p2756
tp2757
a(S's1069'
p2758
S's4042'
p2759
tp2760
a(S's1350'
p2761
S's4314'
p2762
tp2763
a(S's4965'
p2764
S's4488'
p2765
tp2766
a(S's576'
p2767
S's2550'
p2768
tp2769
a(S's570'
p2770
g2306
tp2771
a(S's4485'
p2772
S's2643'
p2773
tp2774
a(S's3417'
p2775
S's4896'
p2776
tp2777
a(S's3661'
p2778
S's2861'
p2779
tp2780
a(S's3512'
p2781
S's1387'
p2782
tp2783
a(S's4361'
p2784
S's27'
p2785
tp2786
a(g2784
S's4435'
p2787
tp2788
a(S's3848'
p2789
S's2300'
p2790
tp2791
a(S's3685'
p2792
S's4405'
p2793
tp2794
a(S's3684'
p2795
S's4556'
p2796
tp2797
a(g2795
S's1767'
p2798
tp2799
a(S's3689'
p2800
S's532'
p2801
tp2802
a(S's1550'
p2803
g2564
tp2804
a(S's4216'
p2805
S's4525'
p2806
tp2807
a(S's1135'
p2808
S's4200'
p2809
tp2810
a(S's1130'
p2811
S's4524'
p2812
tp2813
a(S's1133'
p2814
S's3109'
p2815
tp2816
a(g2814
S's3529'
p2817
tp2818
a(S's166'
p2819
S's3750'
p2820
tp2821
a(S's164'
p2822
S's4517'
p2823
tp2824
a(S's160'
p2825
S's1594'
p2826
tp2827
a(S's368'
p2828
S's237'
p2829
tp2830
a(S's362'
p2831
S's1764'
p2832
tp2833
a(S's1222'
p2834
S's4167'
p2835
tp2836
a(S's4789'
p2837
S's4088'
p2838
tp2839
a(g2837
S's4910'
p2840
tp2841
a(g2228
S's3979'
p2842
tp2843
a(S's4541'
p2844
S's2794'
p2845
tp2846
a(S's4544'
p2847
S's4792'
p2848
tp2849
a(S's4549'
p2850
S's4983'
p2851
tp2852
a(g2850
S's2648'
p2853
tp2854
a(S's4548'
p2855
S's3550'
p2856
tp2857
a(S's2239'
p2858
S's251'
p2859
tp2860
a(g2858
S's4086'
p2861
tp2862
a(S's2238'
p2863
S's3051'
p2864
tp2865
a(S's2231'
p2866
S's3672'
p2867
tp2868
a(S's2237'
p2869
S's3870'
p2870
tp2871
a(S's4458'
p2872
S's2817'
p2873
tp2874
a(S's185'
p2875
S's2866'
p2876
tp2877
a(S's1987'
p2878
S's4537'
p2879
tp2880
a(S's572'
p2881
S's832'
p2882
tp2883
a(S's1911'
p2884
S's2789'
p2885
tp2886
a(S's2788'
p2887
S's2521'
p2888
tp2889
a(S's988'
p2890
S's4582'
p2891
tp2892
a(S's2782'
p2893
S's4760'
p2894
tp2895
a(S's986'
p2896
S's2246'
p2897
tp2898
a(S's982'
p2899
S's2830'
p2900
tp2901
a(S's2887'
p2902
S's1785'
p2903
tp2904
a(S's3097'
p2905
S's4209'
p2906
tp2907
a(S's2010'
p2908
S's4887'
p2909
tp2910
a(S's761'
p2911
S's1480'
p2912
tp2913
a(S's762'
p2914
S's2069'
p2915
tp2916
a(S's764'
p2917
S's2645'
p2918
tp2919
a(S's3843'
p2920
S's509'
p2921
tp2922
a(S's3479'
p2923
S's1102'
p2924
tp2925
a(S's3518'
p2926
S's2607'
p2927
tp2928
a(S's3964'
p2929
S's350'
p2930
tp2931
a(S's4978'
p2932
S's3981'
p2933
tp2934
a(S's504'
p2935
S's4532'
p2936
tp2937
a(S's3502'
p2938
S's1825'
p2939
tp2940
a(S's3693'
p2941
S's2051'
p2942
tp2943
a(g2724
S's2814'
p2944
tp2945
a(S's4257'
p2946
S's4510'
p2947
tp2948
a(S's1699'
p2949
S's4422'
p2950
tp2951
a(S's1128'
p2952
S's3438'
p2953
tp2954
a(S's1692'
p2955
S's2483'
p2956
tp2957
a(S's171'
p2958
S's2824'
p2959
tp2960
a(S's378'
p2961
S's4043'
p2962
tp2963
a(S's377'
p2964
S's2485'
p2965
tp2966
a(S's373'
p2967
S's4990'
p2968
tp2969
a(g2967
S's4761'
p2970
tp2971
a(S's4379'
p2972
S's180'
p2973
tp2974
a(S's1018'
p2975
S's4442'
p2976
tp2977
a(S's4798'
p2978
S's4642'
p2979
tp2980
a(S's4556'
p2981
S's1767'
p2982
tp2983
a(S's4557'
p2984
S's2583'
p2985
tp2986
a(S's4150'
p2987
S's1820'
p2988
tp2989
a(S's3109'
p2990
S's3083'
p2991
tp2992
a(S's4156'
p2993
S's4095'
p2994
tp2995
a(S's2275'
p2996
S's2475'
p2997
tp2998
a(S's2539'
p2999
S's1390'
p3000
tp3001
a(S's2531'
p3002
S's4630'
p3003
tp3004
a(S's2536'
p3005
S's1361'
p3006
tp3007
a(S's2640'
p3008
S's4326'
p3009
tp3010
a(S's10'
p3011
S's532'
p3012
tp3013
a(S's2649'
p3014
S's4424'
p3015
tp3016
a(S's1905'
p3017
S's3992'
p3018
tp3019
a(S's996'
p3020
S's3199'
p3021
tp3022
a(S's991'
p3023
S's1560'
p3024
tp3025
a(S's2274'
p3026
S's3231'
p3027
tp3028
a(S's2002'
p3029
S's3439'
p3030
tp3031
a(S's336'
p3032
S's4330'
p3033
tp3034
a(S's777'
p3035
S's21'
p3036
tp3037
a(S's1168'
p3038
S's4098'
p3039
tp3040
a(S's2683'
p3041
S's2582'
p3042
tp3043
a(S's3449'
p3044
S's4618'
p3045
tp3046
a(S's3442'
p3047
S's1397'
p3048
tp3049
a(S's3440'
p3050
S's2259'
p3051
tp3052
a(S's3196'
p3053
S's3438'
p3054
tp3055
a(S's3047'
p3056
S's2713'
p3057
tp3058
a(S's3043'
p3059
S's1566'
p3060
tp3061
a(S's3041'
p3062
S's3529'
p3063
tp3064
a(S's1042'
p3065
S's2493'
p3066
tp3067
a(S's4947'
p3068
S's1577'
p3069
tp3070
a(S's4647'
p3071
S's2653'
p3072
tp3073
a(S's208'
p3074
S's3997'
p3075
tp3076
a(S's4898'
p3077
S's1171'
p3078
tp3079
a(S's3994'
p3080
S's2802'
p3081
tp3082
a(g3075
S's2072'
p3083
tp3084
a(S's4418'
p3085
S's3188'
p3086
tp3087
a(S's4416'
p3088
S's3931'
p3089
tp3090
a(S's1778'
p3091
S's4182'
p3092
tp3093
a(S's3002'
p3094
S's690'
p3095
tp3096
a(S's4093'
p3097
S's29'
p3098
tp3099
a(S's1591'
p3100
S's1568'
p3101
tp3102
a(S's4304'
p3103
S's1347'
p3104
tp3105
a(S's4636'
p3106
S's4434'
p3107
tp3108
a(S's4633'
p3109
S's1820'
p3110
tp3111
a(S's2675'
p3112
S's3004'
p3113
tp3114
a(S's2678'
p3115
S's1829'
p3116
tp3117
a(S's1979'
p3118
S's4198'
p3119
tp3120
a(S's1976'
p3121
S's1961'
p3122
tp3123
a(S's4144'
p3124
S's2864'
p3125
tp3126
a(S's2257'
p3127
S's1822'
p3128
tp3129
a(g3127
S's2912'
p3130
tp3131
a(S's2075'
p3132
S's4536'
p3133
tp3134
a(S's2076'
p3135
S's3554'
p3136
tp3137
a(S's743'
p3138
S's3435'
p3139
tp3140
a(S's3645'
p3141
S's4422'
p3142
tp3143
a(S's3180'
p3144
S's3546'
p3145
tp3146
a(S's3181'
p3147
S's4160'
p3148
tp3149
a(S's3855'
p3150
S's4426'
p3151
tp3152
a(S's3456'
p3153
S's4166'
p3154
tp3155
a(S's3239'
p3156
S's1969'
p3157
tp3158
a(S's4880'
p3159
S's1562'
p3160
tp3161
a(S's4884'
p3162
S's2249'
p3163
tp3164
a(g3162
S's2473'
p3165
tp3166
a(g3162
S's3751'
p3167
tp3168
a(S's4080'
p3169
S's1547'
p3170
tp3171
a(S's4086'
p3172
S's251'
p3173
tp3174
a(S's4313'
p3175
S's4517'
p3176
tp3177
a(g2364
S's2475'
p3178
tp3179
a(g686
S's1761'
p3180
tp3181
a(S's1564'
p3182
S's4606'
p3183
tp3184
a(S's1100'
p3185
S's4111'
p3186
tp3187
a(S's2488'
p3188
S's2868'
p3189
tp3190
a(S's4626'
p3191
S's785'
p3192
tp3193
a(S's2807'
p3194
S's4910'
p3195
tp3196
a(S's4330'
p3197
S's4322'
p3198
tp3199
a(S's2249'
p3200
g3167
tp3201
a(S's2068'
p3202
S's3755'
p3203
tp3204
a(S's4513'
p3205
S's526'
p3206
tp3207
a(S's1814'
p3208
S's4918'
p3209
tp3210
a(g3148
S's175'
p3211
tp3212
a(g3148
S's220'
p3213
tp3214
a(S's759'
p3215
S's2055'
p3216
tp3217
a(S's1632'
p3218
S's2868'
p3219
tp3220
a(S's2247'
p3221
S's1390'
p3222
tp3223
a(S's175'
p3224
S's220'
p3225
tp3226
a(S's2781'
p3227
S's4883'
p3228
tp3229
a(S's4728'
p3230
S's2869'
p3231
tp3232
a(S's2787'
p3233
S's2609'
p3234
tp3235
a(S's3426'
p3236
S's4642'
p3237
tp3238
a(S's3885'
p3239
S's1763'
p3240
tp3241
a(S's3555'
p3242
S's1177'
p3243
tp3244
a(g3242
S's3523'
p3245
tp3246
a(S's4957'
p3247
S's2908'
p3248
tp3249
a(S's3957'
p3250
S's2470'
p3251
tp3252
a(S's3958'
p3253
S's1337'
p3254
tp3255
a(S's4125'
p3256
S's4920'
p3257
tp3258
a(S's4509'
p3259
S's3453'
p3260
tp3261
a(S's1177'
p3262
S's3523'
p3263
tp3264
a(g3092
S's1769'
p3265
tp3266
a(S's4187'
p3267
S's4343'
p3268
tp3269
a(S's2870'
p3270
S's2292'
p3271
tp3272
a(S's180'
p3273
S's4424'
p3274
tp3275
a(S's2729'
p3276
S's1767'
p3277
tp3278
a(S's2297'
p3279
S's3898'
p3280
tp3281
a(S's32'
p3282
S's2601'
p3283
tp3284
a(S's1388'
p3285
S's2465'
p3286
tp3287
a(S's3726'
p3288
S's3546'
p3289
tp3290
a(S's3548'
p3291
S's1383'
p3292
tp3293
a(S's3549'
p3294
S's2264'
p3295
tp3296
a(S's4110'
p3297
S's1946'
p3298
tp3299
a(S's4518'
p3300
S's4428'
p3301
tp3302
as.